; Function Attrs: mustprogress nounwind uwtable
define internal void @_ZN12_GLOBAL__N_115TextFileHandler15ReadBundleStartERN4llvm12MemoryBufferE(ptr dead_on_unwind noalias nocapture writable sret(%"class.llvm::Expected.65") align 8 %0, ptr noundef nonnull align 8 dereferenceable(96) %1, ptr nocapture noundef nonnull readonly align 8 dereferenceable(24) %2) unnamed_addr #3 align 2 {
  %4 = alloca %"class.llvm::StringRef", align 8
  %5 = getelementptr inbounds nuw i8, ptr %2, i64 8
  %6 = load ptr, ptr %5, align 8
  %7 = getelementptr inbounds nuw i8, ptr %2, i64 16
  %8 = load ptr, ptr %7, align 8
  %9 = ptrtoint ptr %8 to i64
  %10 = ptrtoint ptr %6 to i64
  %11 = sub i64 %9, %10
  store ptr %6, ptr %4, align 8
  %12 = getelementptr inbounds nuw i8, ptr %4, i64 8
  store i64 %11, ptr %12, align 8
  %13 = getelementptr inbounds nuw i8, ptr %1, i64 24
  %14 = tail call noundef ptr @_ZNKSt7__cxx1112basic_stringIcSt11char_traitsIcESaIcEE4dataEv(ptr noundef nonnull align 8 dereferenceable(32) %13) #24
  %15 = tail call noundef i64 @_ZNKSt7__cxx1112basic_stringIcSt11char_traitsIcESaIcEE6lengthEv(ptr noundef nonnull align 8 dereferenceable(32) %13) #24
  %16 = getelementptr inbounds nuw i8, ptr %1, i64 88
  %17 = load i64, ptr %16, align 8
  %18 = call noundef i64 @_ZNK4llvm9StringRef4findES0_m(ptr noundef nonnull align 8 dereferenceable(16) %4, ptr %14, i64 %15, i64 noundef %17) #24
  store i64 %18, ptr %16, align 8
  %19 = icmp eq i64 %18, -1
  br i1 %19, label %20, label %24

20:                                               ; preds = %3
  %21 = getelementptr inbounds nuw i8, ptr %0, i64 24
  %22 = load i8, ptr %21, align 8
  %23 = and i8 %22, -2
  store i8 %23, ptr %21, align 8
  br label %41

24:                                               ; preds = %3
  %25 = call noundef i64 @_ZNKSt7__cxx1112basic_stringIcSt11char_traitsIcESaIcEE4sizeEv(ptr noundef nonnull align 8 dereferenceable(32) %13) #24
  %26 = add i64 %25, %18
  store i64 %26, ptr %16, align 8
  %27 = call noundef i64 @_ZNK4llvm9StringRef4findES0_m(ptr noundef nonnull align 8 dereferenceable(16) %4, ptr nonnull @.str.23, i64 1, i64 noundef %26) #24
  store i64 %27, ptr %16, align 8
  %28 = icmp eq i64 %27, -1
  br i1 %28, label %29, label %33

29:                                               ; preds = %24
  %30 = getelementptr inbounds nuw i8, ptr %0, i64 24
  %31 = load i8, ptr %30, align 8
  %32 = and i8 %31, -2
  store i8 %32, ptr %30, align 8
  br label %41

33:                                               ; preds = %24
  %34 = add nuw i64 %27, 1
  store i64 %34, ptr %16, align 8
  %35 = load ptr, ptr %4, align 8
  %36 = getelementptr inbounds i8, ptr %35, i64 %26
  %37 = sub i64 %27, %26
  %38 = getelementptr inbounds nuw i8, ptr %0, i64 24
  %39 = load i8, ptr %38, align 8
  %40 = and i8 %39, -2
  store i8 %40, ptr %38, align 8
  store ptr %36, ptr %0, align 8
  %.sroa.2.0..sroa_idx = getelementptr inbounds i8, ptr %0, i64 8
  store i64 %37, ptr %.sroa.2.0..sroa_idx, align 8
  br label %41

41:                                               ; preds = %33, %29, %20
  %.sink = phi i8 [ 1, %33 ], [ 0, %29 ], [ 0, %20 ]
  %42 = getelementptr inbounds nuw i8, ptr %0, i64 16
  store i8 %.sink, ptr %42, align 8
  ret void
}